target datalayout = "e-m:e-p270:32:32-p271:32:32-p272:64:64-i64:64-i128:128-f80:128-n8:16:32:64-S128"
target triple = "x86_64-pc-linux-gnu"

%struct._reo_man = type { i32, i32, i32, i32, i32, i32, ptr, ptr, i32, ptr, i32, i32, ptr, ptr, ptr, ptr, i32, i32, i32, i32, i32, i32, double, double, double, ptr, ptr, ptr, ptr, i32, ptr, i32, i32, ptr, i32, i32, i32, ptr, i32, i32, ptr, ptr, i32, i32, i32, i32, i32, i32, i32 }

@.str.1 = private unnamed_addr constant [38 x i8] c"NODES: Total = %6d. Average = %6.2f.\0A\00", align 1

; Function Attrs: nounwind uwtable
define void @reoProfileNodesPrint(ptr noundef %0) #0 {
  %2 = alloca ptr, align 8
  store ptr %0, ptr %2, align 8, !tbaa !3
  %3 = load ptr, ptr %2, align 8, !tbaa !3
  %4 = getelementptr inbounds nuw %struct._reo_man, ptr %3, i32 0, i32 17
  %5 = load i32, ptr %4, align 4, !tbaa !27
  %6 = load ptr, ptr %2, align 8, !tbaa !3
  %7 = getelementptr inbounds nuw %struct._reo_man, ptr %6, i32 0, i32 17
  %8 = load i32, ptr %7, align 4, !tbaa !27
  %9 = sitofp i32 %8 to float
  %10 = load ptr, ptr %2, align 8, !tbaa !3
  %11 = getelementptr inbounds nuw %struct._reo_man, ptr %10, i32 0, i32 11
  %12 = load i32, ptr %11, align 4, !tbaa !10
  %13 = sitofp i32 %12 to float
  %14 = fdiv float %9, %13
  %15 = fpext float %14 to double
  %16 = call i32 (ptr, ...) @printf(ptr noundef @.str.1, i32 noundef %5, double noundef %15)
  ret void
}