; Function Attrs: nofree nounwind uwtable
define void @reoProfileNodesPrint(ptr noundef readonly captures(none) %0) local_unnamed_addr #5 {
  %2 = getelementptr inbounds nuw i8, ptr %0, i64 100
  %3 = load i32, ptr %2, align 4, !tbaa !24
  %4 = sitofp i32 %3 to float
  %5 = getelementptr inbounds nuw i8, ptr %0, i64 60
  %6 = load i32, ptr %5, align 4, !tbaa !3
  %7 = sitofp i32 %6 to float
  %8 = fdiv float %4, %7
  %9 = fpext float %8 to double
  %10 = tail call i32 (ptr, ...) @printf(ptr noundef nonnull dereferenceable(1) @.str.1, i32 noundef %3, double noundef %9)
  ret void
}